target datalayout = "e-m:e-p270:32:32-p271:32:32-p272:64:64-i64:64-i128:128-f80:128-n8:16:32:64-S128"
target triple = "x86_64-pc-linux-gnu"

; Function Attrs: nounwind uwtable
define i32 @SetMyVersion(i32 noundef %0, ptr noundef %1, i32 noundef %2) #0 {
  %4 = alloca i32, align 4
  %5 = alloca i32, align 4
  %6 = alloca ptr, align 8
  %7 = alloca i32, align 4
  %8 = alloca i32, align 4
  %9 = alloca i32, align 4
  store i32 %0, ptr %5, align 4, !tbaa !3
  store ptr %1, ptr %6, align 8, !tbaa !7
  store i32 %2, ptr %7, align 4, !tbaa !3
  call void @llvm.lifetime.start.p0(i64 4, ptr %8) #9
  store i32 0, ptr %8, align 4, !tbaa !3
  %10 = load ptr, ptr %6, align 8, !tbaa !7
  %11 = icmp eq ptr %10, null
  br i1 %11, label %12, label %13

12:                                               ; preds = %3
  store i32 -173, ptr %4, align 4
  store i32 1, ptr %9, align 4
  br label %46

13:                                               ; preds = %3
  %14 = load i32, ptr %7, align 4, !tbaa !3
  %15 = icmp ne i32 %14, 0
  br i1 %15, label %16, label %27

16:                                               ; preds = %13
  %17 = load ptr, ptr %6, align 8, !tbaa !7
  %18 = load i32, ptr %8, align 4, !tbaa !3
  %19 = add nsw i32 %18, 1
  store i32 %19, ptr %8, align 4, !tbaa !3
  %20 = sext i32 %18 to i64
  %21 = getelementptr inbounds i8, ptr %17, i64 %20
  store i8 -96, ptr %21, align 1, !tbaa !10
  %22 = load ptr, ptr %6, align 8, !tbaa !7
  %23 = load i32, ptr %8, align 4, !tbaa !3
  %24 = add nsw i32 %23, 1
  store i32 %24, ptr %8, align 4, !tbaa !3
  %25 = sext i32 %23 to i64
  %26 = getelementptr inbounds i8, ptr %22, i64 %25
  store i8 3, ptr %26, align 1, !tbaa !10
  br label %27

27:                                               ; preds = %16, %13
  %28 = load ptr, ptr %6, align 8, !tbaa !7
  %29 = load i32, ptr %8, align 4, !tbaa !3
  %30 = add nsw i32 %29, 1
  store i32 %30, ptr %8, align 4, !tbaa !3
  %31 = sext i32 %29 to i64
  %32 = getelementptr inbounds i8, ptr %28, i64 %31
  store i8 2, ptr %32, align 1, !tbaa !10
  %33 = load ptr, ptr %6, align 8, !tbaa !7
  %34 = load i32, ptr %8, align 4, !tbaa !3
  %35 = add nsw i32 %34, 1
  store i32 %35, ptr %8, align 4, !tbaa !3
  %36 = sext i32 %34 to i64
  %37 = getelementptr inbounds i8, ptr %33, i64 %36
  store i8 1, ptr %37, align 1, !tbaa !10
  %38 = load i32, ptr %5, align 4, !tbaa !3
  %39 = trunc i32 %38 to i8
  %40 = load ptr, ptr %6, align 8, !tbaa !7
  %41 = load i32, ptr %8, align 4, !tbaa !3
  %42 = add nsw i32 %41, 1
  store i32 %42, ptr %8, align 4, !tbaa !3
  %43 = sext i32 %41 to i64
  %44 = getelementptr inbounds i8, ptr %40, i64 %43
  store i8 %39, ptr %44, align 1, !tbaa !10
  %45 = load i32, ptr %8, align 4, !tbaa !3
  store i32 %45, ptr %4, align 4
  store i32 1, ptr %9, align 4
  br label %46

46:                                               ; preds = %27, %12
  call void @llvm.lifetime.end.p0(i64 4, ptr %8) #9
  %47 = load i32, ptr %4, align 4
  ret i32 %47
}