; Function Attrs: mustprogress nofree norecurse nosync nounwind willreturn memory(argmem: write) uwtable
define range(i32 -173, 6) i32 @SetMyVersion(i32 noundef %0, ptr noundef writeonly captures(address_is_null) %1, i32 noundef %2) local_unnamed_addr #12 {
  %4 = icmp eq ptr %1, null
  br i1 %4, label %17, label %5

5:                                                ; preds = %3
  %.not = icmp eq i32 %2, 0
  br i1 %.not, label %8, label %6

6:                                                ; preds = %5
  store i8 -96, ptr %1, align 1, !tbaa !3
  %7 = getelementptr inbounds nuw i8, ptr %1, i64 1
  store i8 3, ptr %7, align 1, !tbaa !3
  br label %8

8:                                                ; preds = %6, %5
  %.0 = phi i32 [ 2, %6 ], [ 0, %5 ]
  %9 = or disjoint i32 %.0, 1
  %10 = zext nneg i32 %.0 to i64
  %11 = getelementptr inbounds nuw i8, ptr %1, i64 %10
  store i8 2, ptr %11, align 1, !tbaa !3
  %12 = zext nneg i32 %9 to i64
  %13 = getelementptr inbounds nuw i8, ptr %1, i64 %12
  store i8 1, ptr %13, align 1, !tbaa !3
  %14 = trunc i32 %0 to i8
  %15 = add nuw nsw i32 %.0, 3
  %16 = getelementptr inbounds nuw i8, ptr %11, i64 2
  store i8 %14, ptr %16, align 1, !tbaa !3
  br label %17

17:                                               ; preds = %3, %8
  %.014 = phi i32 [ %15, %8 ], [ -173, %3 ]
  ret i32 %.014
}